; ModuleID = 'source-C-CXX/41/1774.cpp'
source_filename = "source-C-CXX/41/1774.cpp"
target datalayout = "e-m:e-p270:32:32-p271:32:32-p272:64:64-i64:64-f80:128-n8:16:32:64-S128"
target triple = "x86_64-pc-linux-gnu"

%"class.std::ios_base::Init" = type { i8 }
%"class.std::basic_istream" = type { i32 (...)**, i64, %"class.std::basic_ios" }
%"class.std::basic_ios" = type { %"class.std::ios_base", %"class.std::basic_ostream"*, i8, i8, %"class.std::basic_streambuf"*, %"class.std::ctype"*, %"class.std::num_put"*, %"class.std::num_get"* }
%"class.std::ios_base" = type { i32 (...)**, i64, i64, i32, i32, i32, %"struct.std::ios_base::_Callback_list"*, %"struct.std::ios_base::_Words", [8 x %"struct.std::ios_base::_Words"], i32, %"struct.std::ios_base::_Words"*, %"class.std::locale" }
%"struct.std::ios_base::_Callback_list" = type { %"struct.std::ios_base::_Callback_list"*, void (i32, %"class.std::ios_base"*, i32)*, i32, i32 }
%"struct.std::ios_base::_Words" = type { i8*, i64 }
%"class.std::locale" = type { %"class.std::locale::_Impl"* }
%"class.std::locale::_Impl" = type { i32, %"class.std::locale::facet"**, i64, %"class.std::locale::facet"**, i8** }
%"class.std::locale::facet" = type <{ i32 (...)**, i32, [4 x i8] }>
%"class.std::basic_ostream" = type { i32 (...)**, %"class.std::basic_ios" }
%"class.std::basic_streambuf" = type { i32 (...)**, i8*, i8*, i8*, i8*, i8*, i8*, %"class.std::locale" }
%"class.std::ctype" = type <{ %"class.std::locale::facet.base", [4 x i8], %struct.__locale_struct*, i8, [7 x i8], i32*, i32*, i16*, i8, [256 x i8], [256 x i8], i8, [6 x i8] }>
%"class.std::locale::facet.base" = type <{ i32 (...)**, i32 }>
%struct.__locale_struct = type { [13 x %struct.__locale_data*], i16*, i32*, i32*, [13 x i8*] }
%struct.__locale_data = type opaque
%"class.std::num_put" = type { %"class.std::locale::facet.base", [4 x i8] }
%"class.std::num_get" = type { %"class.std::locale::facet.base", [4 x i8] }

@_ZStL8__ioinit = internal global %"class.std::ios_base::Init" zeroinitializer, align 1
@__dso_handle = external hidden global i8
@_ZSt3cin = external global %"class.std::basic_istream", align 8
@_ZSt4cout = external global %"class.std::basic_ostream", align 8
@.str = private unnamed_addr constant [2 x i8] c" \00", align 1
@llvm.global_ctors = appending global [1 x { i32, void ()*, i8* }] [{ i32, void ()*, i8* } { i32 65535, void ()* @_GLOBAL__sub_I_1774.cpp, i8* null }]

declare void @_ZNSt8ios_base4InitC1Ev(%"class.std::ios_base::Init"* nonnull align 1 dereferenceable(1)) unnamed_addr #0

; Function Attrs: nounwind
declare void @_ZNSt8ios_base4InitD1Ev(%"class.std::ios_base::Init"* nonnull align 1 dereferenceable(1)) unnamed_addr #1

; Function Attrs: nofree nounwind
declare i32 @__cxa_atexit(void (i8*)*, i8*, i8*) local_unnamed_addr #2

; Function Attrs: mustprogress norecurse sspstrong uwtable
define dso_local i32 @main() local_unnamed_addr #3 {
  %1 = alloca i32, align 4
  %2 = alloca i32, align 4
  %3 = alloca [100000 x double], align 16
  %4 = bitcast i32* %1 to i8*
  call void @llvm.lifetime.start.p0i8(i64 4, i8* nonnull %4) #7
  %5 = bitcast i32* %2 to i8*
  call void @llvm.lifetime.start.p0i8(i64 4, i8* nonnull %5) #7
  %6 = bitcast [100000 x double]* %3 to i8*
  call void @llvm.lifetime.start.p0i8(i64 800000, i8* nonnull %6) #7
  %7 = call nonnull align 8 dereferenceable(16) %"class.std::basic_istream"* @_ZNSirsERi(%"class.std::basic_istream"* nonnull align 8 dereferenceable(16) @_ZSt3cin, i32* nonnull align 4 dereferenceable(4) %1)
  %8 = load i32, i32* %1, align 4, !tbaa !5
  %9 = icmp sgt i32 %8, 0
  br i1 %9, label %10, label %18

10:                                               ; preds = %0, %10
  %11 = phi i64 [ %14, %10 ], [ 0, %0 ]
  %12 = getelementptr inbounds [100000 x double], [100000 x double]* %3, i64 0, i64 %11
  %13 = call nonnull align 8 dereferenceable(16) %"class.std::basic_istream"* @_ZNSi10_M_extractIdEERSiRT_(%"class.std::basic_istream"* nonnull align 8 dereferenceable(16) @_ZSt3cin, double* nonnull align 8 dereferenceable(8) %12)
  %14 = add nuw nsw i64 %11, 1
  %15 = load i32, i32* %1, align 4, !tbaa !5
  %16 = sext i32 %15 to i64
  %17 = icmp slt i64 %14, %16
  br i1 %17, label %10, label %18, !llvm.loop !9

18:                                               ; preds = %10, %0
  %19 = call nonnull align 8 dereferenceable(16) %"class.std::basic_istream"* @_ZNSirsERi(%"class.std::basic_istream"* nonnull align 8 dereferenceable(16) @_ZSt3cin, i32* nonnull align 4 dereferenceable(4) %2)
  %20 = load i32, i32* %1, align 4, !tbaa !5
  %21 = load i32, i32* %2, align 4
  %22 = sitofp i32 %21 to double
  %23 = icmp sgt i32 %20, 0
  br i1 %23, label %24, label %109

24:                                               ; preds = %18
  %25 = zext i32 %20 to i64
  %26 = and i64 %25, 1
  %27 = icmp eq i32 %20, 1
  br i1 %27, label %30, label %28

28:                                               ; preds = %24
  %29 = and i64 %25, 4294967294
  br label %44

30:                                               ; preds = %112, %24
  %31 = phi i32 [ undef, %24 ], [ %113, %112 ]
  %32 = phi i64 [ 0, %24 ], [ %114, %112 ]
  %33 = phi i32 [ 0, %24 ], [ %113, %112 ]
  %34 = icmp eq i64 %26, 0
  br i1 %34, label %41, label %35

35:                                               ; preds = %30
  %36 = getelementptr inbounds [100000 x double], [100000 x double]* %3, i64 0, i64 %32
  %37 = load double, double* %36, align 8, !tbaa !11
  %38 = fcmp oeq double %37, %22
  br i1 %38, label %39, label %41

39:                                               ; preds = %35
  store double 1.500000e+00, double* %36, align 8, !tbaa !11
  %40 = add nsw i32 %33, 1
  br label %41

41:                                               ; preds = %39, %35, %30
  %42 = phi i32 [ %31, %30 ], [ %40, %39 ], [ %33, %35 ]
  %43 = xor i32 %42, -1
  br i1 %23, label %59, label %109

44:                                               ; preds = %112, %28
  %45 = phi i64 [ 0, %28 ], [ %114, %112 ]
  %46 = phi i32 [ 0, %28 ], [ %113, %112 ]
  %47 = phi i64 [ %29, %28 ], [ %115, %112 ]
  %48 = getelementptr inbounds [100000 x double], [100000 x double]* %3, i64 0, i64 %45
  %49 = load double, double* %48, align 16, !tbaa !11
  %50 = fcmp oeq double %49, %22
  br i1 %50, label %51, label %53

51:                                               ; preds = %44
  store double 1.500000e+00, double* %48, align 16, !tbaa !11
  %52 = add nsw i32 %46, 1
  br label %53

53:                                               ; preds = %44, %51
  %54 = phi i32 [ %52, %51 ], [ %46, %44 ]
  %55 = or i64 %45, 1
  %56 = getelementptr inbounds [100000 x double], [100000 x double]* %3, i64 0, i64 %55
  %57 = load double, double* %56, align 8, !tbaa !11
  %58 = fcmp oeq double %57, %22
  br i1 %58, label %110, label %112

59:                                               ; preds = %41, %103
  %60 = phi i64 [ %105, %103 ], [ 0, %41 ]
  %61 = phi i32 [ %106, %103 ], [ %20, %41 ]
  %62 = phi i32 [ %104, %103 ], [ 0, %41 ]
  %63 = getelementptr inbounds [100000 x double], [100000 x double]* %3, i64 0, i64 %60
  %64 = load double, double* %63, align 8, !tbaa !11
  %65 = fcmp une double %64, 1.500000e+00
  br i1 %65, label %66, label %103

66:                                               ; preds = %59
  %67 = add i32 %61, %43
  %68 = icmp eq i32 %62, %67
  %69 = call nonnull align 8 dereferenceable(8) %"class.std::basic_ostream"* @_ZNSo9_M_insertIdEERSoT_(%"class.std::basic_ostream"* nonnull align 8 dereferenceable(8) @_ZSt4cout, double %64)
  br i1 %68, label %73, label %70

70:                                               ; preds = %66
  %71 = call nonnull align 8 dereferenceable(8) %"class.std::basic_ostream"* @_ZSt16__ostream_insertIcSt11char_traitsIcEERSt13basic_ostreamIT_T0_ES6_PKS3_l(%"class.std::basic_ostream"* nonnull align 8 dereferenceable(8) %69, i8* nonnull getelementptr inbounds ([2 x i8], [2 x i8]* @.str, i64 0, i64 0), i64 1)
  %72 = add nsw i32 %62, 1
  br label %103

73:                                               ; preds = %66
  %74 = bitcast %"class.std::basic_ostream"* %69 to i8**
  %75 = load i8*, i8** %74, align 8, !tbaa !13
  %76 = getelementptr i8, i8* %75, i64 -24
  %77 = bitcast i8* %76 to i64*
  %78 = load i64, i64* %77, align 8
  %79 = bitcast %"class.std::basic_ostream"* %69 to i8*
  %80 = add nsw i64 %78, 240
  %81 = getelementptr inbounds i8, i8* %79, i64 %80
  %82 = bitcast i8* %81 to %"class.std::ctype"**
  %83 = load %"class.std::ctype"*, %"class.std::ctype"** %82, align 8, !tbaa !15
  %84 = icmp eq %"class.std::ctype"* %83, null
  br i1 %84, label %85, label %86

85:                                               ; preds = %73
  call void @_ZSt16__throw_bad_castv() #8
  unreachable

86:                                               ; preds = %73
  %87 = getelementptr inbounds %"class.std::ctype", %"class.std::ctype"* %83, i64 0, i32 8
  %88 = load i8, i8* %87, align 8, !tbaa !19
  %89 = icmp eq i8 %88, 0
  br i1 %89, label %93, label %90

90:                                               ; preds = %86
  %91 = getelementptr inbounds %"class.std::ctype", %"class.std::ctype"* %83, i64 0, i32 9, i64 10
  %92 = load i8, i8* %91, align 1, !tbaa !21
  br label %99

93:                                               ; preds = %86
  call void @_ZNKSt5ctypeIcE13_M_widen_initEv(%"class.std::ctype"* nonnull align 8 dereferenceable(570) %83)
  %94 = bitcast %"class.std::ctype"* %83 to i8 (%"class.std::ctype"*, i8)***
  %95 = load i8 (%"class.std::ctype"*, i8)**, i8 (%"class.std::ctype"*, i8)*** %94, align 8, !tbaa !13
  %96 = getelementptr inbounds i8 (%"class.std::ctype"*, i8)*, i8 (%"class.std::ctype"*, i8)** %95, i64 6
  %97 = load i8 (%"class.std::ctype"*, i8)*, i8 (%"class.std::ctype"*, i8)** %96, align 8
  %98 = call signext i8 %97(%"class.std::ctype"* nonnull align 8 dereferenceable(570) %83, i8 signext 10)
  br label %99

99:                                               ; preds = %90, %93
  %100 = phi i8 [ %92, %90 ], [ %98, %93 ]
  %101 = call nonnull align 8 dereferenceable(8) %"class.std::basic_ostream"* @_ZNSo3putEc(%"class.std::basic_ostream"* nonnull align 8 dereferenceable(8) %69, i8 signext %100)
  %102 = call nonnull align 8 dereferenceable(8) %"class.std::basic_ostream"* @_ZNSo5flushEv(%"class.std::basic_ostream"* nonnull align 8 dereferenceable(8) %101)
  br label %103

103:                                              ; preds = %99, %70, %59
  %104 = phi i32 [ %72, %70 ], [ %62, %99 ], [ %62, %59 ]
  %105 = add nuw nsw i64 %60, 1
  %106 = load i32, i32* %1, align 4, !tbaa !5
  %107 = sext i32 %106 to i64
  %108 = icmp slt i64 %105, %107
  br i1 %108, label %59, label %109, !llvm.loop !22

109:                                              ; preds = %103, %18, %41
  call void @llvm.lifetime.end.p0i8(i64 800000, i8* nonnull %6) #7
  call void @llvm.lifetime.end.p0i8(i64 4, i8* nonnull %5) #7
  call void @llvm.lifetime.end.p0i8(i64 4, i8* nonnull %4) #7
  ret i32 0

110:                                              ; preds = %53
  store double 1.500000e+00, double* %56, align 8, !tbaa !11
  %111 = add nsw i32 %54, 1
  br label %112

112:                                              ; preds = %110, %53
  %113 = phi i32 [ %111, %110 ], [ %54, %53 ]
  %114 = add nuw nsw i64 %45, 2
  %115 = add i64 %47, -2
  %116 = icmp eq i64 %115, 0
  br i1 %116, label %30, label %44, !llvm.loop !23
}

; Function Attrs: argmemonly mustprogress nofree nosync nounwind willreturn
declare void @llvm.lifetime.start.p0i8(i64 immarg, i8* nocapture) #4

declare nonnull align 8 dereferenceable(16) %"class.std::basic_istream"* @_ZNSirsERi(%"class.std::basic_istream"* nonnull align 8 dereferenceable(16), i32* nonnull align 4 dereferenceable(4)) local_unnamed_addr #0

; Function Attrs: argmemonly mustprogress nofree nosync nounwind willreturn
declare void @llvm.lifetime.end.p0i8(i64 immarg, i8* nocapture) #4

declare nonnull align 8 dereferenceable(16) %"class.std::basic_istream"* @_ZNSi10_M_extractIdEERSiRT_(%"class.std::basic_istream"* nonnull align 8 dereferenceable(16), double* nonnull align 8 dereferenceable(8)) local_unnamed_addr #0

declare nonnull align 8 dereferenceable(8) %"class.std::basic_ostream"* @_ZNSo9_M_insertIdEERSoT_(%"class.std::basic_ostream"* nonnull align 8 dereferenceable(8), double) local_unnamed_addr #0

declare nonnull align 8 dereferenceable(8) %"class.std::basic_ostream"* @_ZSt16__ostream_insertIcSt11char_traitsIcEERSt13basic_ostreamIT_T0_ES6_PKS3_l(%"class.std::basic_ostream"* nonnull align 8 dereferenceable(8), i8*, i64) local_unnamed_addr #0

declare nonnull align 8 dereferenceable(8) %"class.std::basic_ostream"* @_ZNSo3putEc(%"class.std::basic_ostream"* nonnull align 8 dereferenceable(8), i8 signext) local_unnamed_addr #0

declare nonnull align 8 dereferenceable(8) %"class.std::basic_ostream"* @_ZNSo5flushEv(%"class.std::basic_ostream"* nonnull align 8 dereferenceable(8)) local_unnamed_addr #0

; Function Attrs: noreturn
declare void @_ZSt16__throw_bad_castv() local_unnamed_addr #5

declare void @_ZNKSt5ctypeIcE13_M_widen_initEv(%"class.std::ctype"* nonnull align 8 dereferenceable(570)) local_unnamed_addr #0

; Function Attrs: sspstrong uwtable
define internal void @_GLOBAL__sub_I_1774.cpp() #6 section ".text.startup" {
  tail call void @_ZNSt8ios_base4InitC1Ev(%"class.std::ios_base::Init"* nonnull align 1 dereferenceable(1) @_ZStL8__ioinit)
  %1 = tail call i32 @__cxa_atexit(void (i8*)* bitcast (void (%"class.std::ios_base::Init"*)* @_ZNSt8ios_base4InitD1Ev to void (i8*)*), i8* getelementptr inbounds (%"class.std::ios_base::Init", %"class.std::ios_base::Init"* @_ZStL8__ioinit, i64 0, i32 0), i8* nonnull @__dso_handle) #7
  ret void
}


!llvm.module.flags = !{!0, !1, !2, !3}
!llvm.ident = !{!4}

!0 = !{i32 1, !"wchar_size", i32 4}
!1 = !{i32 7, !"PIC Level", i32 2}
!2 = !{i32 7, !"PIE Level", i32 2}
!3 = !{i32 7, !"uwtable", i32 1}
!4 = !{!"clang version 13.0.0"}
!5 = !{!6, !6, i64 0}
!6 = !{!"int", !7, i64 0}
!7 = !{!"omnipotent char", !8, i64 0}
!8 = !{!"Simple C++ TBAA"}
!9 = distinct !{!9, !10}
!10 = !{!"llvm.loop.mustprogress"}
!11 = !{!12, !12, i64 0}
!12 = !{!"double", !7, i64 0}
!13 = !{!14, !14, i64 0}
!14 = !{!"vtable pointer", !8, i64 0}
!15 = !{!16, !17, i64 240}
!16 = !{!"_ZTSSt9basic_iosIcSt11char_traitsIcEE", !17, i64 216, !7, i64 224, !18, i64 225, !17, i64 232, !17, i64 240, !17, i64 248, !17, i64 256}
!17 = !{!"any pointer", !7, i64 0}
!18 = !{!"bool", !7, i64 0}
!19 = !{!20, !7, i64 56}
!20 = !{!"_ZTSSt5ctypeIcE", !17, i64 16, !18, i64 24, !17, i64 32, !17, i64 40, !17, i64 48, !7, i64 56, !7, i64 57, !7, i64 313, !7, i64 569}
!21 = !{!7, !7, i64 0}
!22 = distinct !{!22, !10}
!23 = distinct !{!23, !10}
